target datalayout = "e-m:e-p270:32:32-p271:32:32-p272:64:64-i64:64-i128:128-f80:128-n8:16:32:64-S128"
target triple = "x86_64-pc-linux-gnu"

%struct.evp_cipher_ctx_st = type { ptr, ptr, ptr, i32, i32, i32, [16 x i8], [16 x i8], [32 x i8], i32, i32, i32, i32, [32 x i8] }
%struct.PBE2PARAM_st = type { ptr, ptr }
%struct.X509_algor_st = type { ptr, ptr }
%struct.asn1_type_st = type { i32, %union.anon }
%union.anon = type { ptr }

@PBE2PARAM_it = hidden constant { i8, [7 x i8], i64, ptr, i64, ptr, i64, ptr } { i8 1, [7 x i8] zeroinitializer, i64 16, ptr @PBE2PARAM_seq_tt, i64 2, ptr null, i64 16, ptr @.str }, align 8
@.str.2 = private unnamed_addr constant [127 x i8] c"generated/home/dtcxzyw/WorkSpace/Projects/compilers/llvm-opt-benchmark/bench/libquic/libquic/boringssl/crypto/pkcs8/p5_pbev2.c\00", align 1

; Function Attrs: nounwind uwtable
define internal i32 @ASN1_TYPE_set_octetstring(ptr noundef %0, ptr noundef %1, i32 noundef %2) #0 {
  %4 = alloca i32, align 4
  %5 = alloca ptr, align 8
  %6 = alloca ptr, align 8
  %7 = alloca i32, align 4
  %8 = alloca ptr, align 8
  %9 = alloca i32, align 4
  store ptr %0, ptr %5, align 8, !tbaa !42
  store ptr %1, ptr %6, align 8, !tbaa !25
  store i32 %2, ptr %7, align 4, !tbaa !23
  call void @llvm.lifetime.start.p0(i64 8, ptr %8) #5
  %10 = call ptr @ASN1_STRING_type_new(i32 noundef 4)
  store ptr %10, ptr %8, align 8, !tbaa !43
  %11 = icmp eq ptr %10, null
  br i1 %11, label %12, label %13

12:                                               ; preds = %3
  store i32 0, ptr %4, align 4
  store i32 1, ptr %9, align 4
  br label %24

13:                                               ; preds = %3
  %14 = load ptr, ptr %8, align 8, !tbaa !43
  %15 = load ptr, ptr %6, align 8, !tbaa !25
  %16 = load i32, ptr %7, align 4, !tbaa !23
  %17 = call i32 @ASN1_STRING_set(ptr noundef %14, ptr noundef %15, i32 noundef %16)
  %18 = icmp ne i32 %17, 0
  br i1 %18, label %21, label %19

19:                                               ; preds = %13
  %20 = load ptr, ptr %8, align 8, !tbaa !43
  call void @ASN1_STRING_free(ptr noundef %20)
  store i32 0, ptr %4, align 4
  store i32 1, ptr %9, align 4
  br label %24

21:                                               ; preds = %13
  %22 = load ptr, ptr %5, align 8, !tbaa !42
  %23 = load ptr, ptr %8, align 8, !tbaa !43
  call void @ASN1_TYPE_set(ptr noundef %22, i32 noundef 4, ptr noundef %23)
  store i32 1, ptr %4, align 4
  store i32 1, ptr %9, align 4
  br label %24

24:                                               ; preds = %21, %19, %12
  call void @llvm.lifetime.end.p0(i64 8, ptr %8) #5
  %25 = load i32, ptr %4, align 4
  ret i32 %25
}

; Function Attrs: nounwind uwtable
define hidden void @PBE2PARAM_free(ptr noundef %0) #0 {
  %2 = alloca ptr, align 8
  store ptr %0, ptr %2, align 8, !tbaa !15
  %3 = load ptr, ptr %2, align 8, !tbaa !15
  call void @ASN1_item_free(ptr noundef %3, ptr noundef @PBE2PARAM_it)
  ret void
}

; Function Attrs: nounwind uwtable
define internal i32 @param_to_asn1(ptr noundef %0, ptr noundef %1) #0 {
  %3 = alloca ptr, align 8
  %4 = alloca ptr, align 8
  %5 = alloca i32, align 4
  store ptr %0, ptr %3, align 8, !tbaa !40
  store ptr %1, ptr %4, align 8, !tbaa !42
  call void @llvm.lifetime.start.p0(i64 4, ptr %5) #5
  %6 = load ptr, ptr %3, align 8, !tbaa !40
  %7 = call i32 @EVP_CIPHER_CTX_iv_length(ptr noundef %6)
  store i32 %7, ptr %5, align 4, !tbaa !23
  %8 = load ptr, ptr %4, align 8, !tbaa !42
  %9 = load ptr, ptr %3, align 8, !tbaa !40
  %10 = getelementptr inbounds nuw %struct.evp_cipher_ctx_st, ptr %9, i32 0, i32 6
  %11 = getelementptr inbounds [16 x i8], ptr %10, i64 0, i64 0
  %12 = load i32, ptr %5, align 4, !tbaa !23
  %13 = call i32 @ASN1_TYPE_set_octetstring(ptr noundef %8, ptr noundef %11, i32 noundef %12)
  call void @llvm.lifetime.end.p0(i64 4, ptr %5) #5
  ret i32 %13
}

; Function Attrs: nounwind uwtable
define hidden ptr @PBE2PARAM_new() #0 {
  %1 = call ptr @ASN1_item_new(ptr noundef @PBE2PARAM_it)
  ret ptr %1
}

; Function Attrs: nounwind uwtable
define hidden ptr @PKCS5_pbe2_set_iv(ptr noundef %0, i32 noundef %1, ptr noundef %2, i32 noundef %3, ptr noundef %4, i32 noundef %5) #0 {
  %7 = alloca ptr, align 8
  %8 = alloca ptr, align 8
  %9 = alloca i32, align 4
  %10 = alloca ptr, align 8
  %11 = alloca i32, align 4
  %12 = alloca ptr, align 8
  %13 = alloca i32, align 4
  %14 = alloca ptr, align 8
  %15 = alloca ptr, align 8
  %16 = alloca ptr, align 8
  %17 = alloca i32, align 4
  %18 = alloca i32, align 4
  %19 = alloca %struct.evp_cipher_ctx_st, align 8
  %20 = alloca [16 x i8], align 16
  %21 = alloca ptr, align 8
  %22 = alloca ptr, align 8
  %23 = alloca i32, align 4
  store ptr %0, ptr %8, align 8, !tbaa !21
  store i32 %1, ptr %9, align 4, !tbaa !23
  store ptr %2, ptr %10, align 8, !tbaa !25
  store i32 %3, ptr %11, align 4, !tbaa !23
  store ptr %4, ptr %12, align 8, !tbaa !25
  store i32 %5, ptr %13, align 4, !tbaa !23
  call void @llvm.lifetime.start.p0(i64 8, ptr %14) #5
  store ptr null, ptr %14, align 8, !tbaa !27
  call void @llvm.lifetime.start.p0(i64 8, ptr %15) #5
  store ptr null, ptr %15, align 8, !tbaa !27
  call void @llvm.lifetime.start.p0(i64 8, ptr %16) #5
  store ptr null, ptr %16, align 8, !tbaa !27
  call void @llvm.lifetime.start.p0(i64 4, ptr %17) #5
  call void @llvm.lifetime.start.p0(i64 4, ptr %18) #5
  call void @llvm.lifetime.start.p0(i64 152, ptr %19) #5
  call void @llvm.lifetime.start.p0(i64 16, ptr %20) #5
  call void @llvm.lifetime.start.p0(i64 8, ptr %21) #5
  store ptr null, ptr %21, align 8, !tbaa !15
  call void @llvm.lifetime.start.p0(i64 8, ptr %22) #5
  %24 = load ptr, ptr %8, align 8, !tbaa !21
  %25 = call i32 @EVP_CIPHER_nid(ptr noundef %24)
  store i32 %25, ptr %17, align 4, !tbaa !23
  %26 = load i32, ptr %17, align 4, !tbaa !23
  %27 = icmp eq i32 %26, 0
  br i1 %27, label %28, label %29

28:                                               ; preds = %6
  call void @ERR_put_error(i32 noundef 19, i32 noundef 0, i32 noundef 102, ptr noundef @.str.2, i32 noundef 130)
  br label %146

29:                                               ; preds = %6
  %30 = load i32, ptr %17, align 4, !tbaa !23
  %31 = call ptr @OBJ_nid2obj(i32 noundef %30)
  store ptr %31, ptr %22, align 8, !tbaa !29
  %32 = call ptr @PBE2PARAM_new()
  store ptr %32, ptr %21, align 8, !tbaa !15
  %33 = icmp ne ptr %32, null
  br i1 %33, label %35, label %34

34:                                               ; preds = %29
  br label %145

35:                                               ; preds = %29
  %36 = load ptr, ptr %21, align 8, !tbaa !15
  %37 = getelementptr inbounds nuw %struct.PBE2PARAM_st, ptr %36, i32 0, i32 1
  %38 = load ptr, ptr %37, align 8, !tbaa !31
  store ptr %38, ptr %14, align 8, !tbaa !27
  %39 = load ptr, ptr %22, align 8, !tbaa !29
  %40 = load ptr, ptr %14, align 8, !tbaa !27
  %41 = getelementptr inbounds nuw %struct.X509_algor_st, ptr %40, i32 0, i32 0
  store ptr %39, ptr %41, align 8, !tbaa !33
  %42 = call ptr @ASN1_TYPE_new()
  %43 = load ptr, ptr %14, align 8, !tbaa !27
  %44 = getelementptr inbounds nuw %struct.X509_algor_st, ptr %43, i32 0, i32 1
  store ptr %42, ptr %44, align 8, !tbaa !36
  %45 = icmp ne ptr %42, null
  br i1 %45, label %47, label %46

46:                                               ; preds = %35
  br label %145

47:                                               ; preds = %35
  %48 = load ptr, ptr %8, align 8, !tbaa !21
  %49 = call i32 @EVP_CIPHER_iv_length(ptr noundef %48)
  %50 = icmp ne i32 %49, 0
  br i1 %50, label %51, label %70

51:                                               ; preds = %47
  %52 = load ptr, ptr %12, align 8, !tbaa !25
  %53 = icmp ne ptr %52, null
  br i1 %53, label %54, label %60

54:                                               ; preds = %51
  %55 = getelementptr inbounds [16 x i8], ptr %20, i64 0, i64 0
  %56 = load ptr, ptr %12, align 8, !tbaa !25
  %57 = load ptr, ptr %8, align 8, !tbaa !21
  %58 = call i32 @EVP_CIPHER_iv_length(ptr noundef %57)
  %59 = zext i32 %58 to i64
  call void @llvm.memcpy.p0.p0.i64(ptr align 16 %55, ptr align 1 %56, i64 %59, i1 false)
  br label %69

60:                                               ; preds = %51
  %61 = getelementptr inbounds [16 x i8], ptr %20, i64 0, i64 0
  %62 = load ptr, ptr %8, align 8, !tbaa !21
  %63 = call i32 @EVP_CIPHER_iv_length(ptr noundef %62)
  %64 = zext i32 %63 to i64
  %65 = call i32 @RAND_bytes(ptr noundef %61, i64 noundef %64)
  %66 = icmp ne i32 %65, 0
  br i1 %66, label %68, label %67

67:                                               ; preds = %60
  br label %146

68:                                               ; preds = %60
  br label %69

69:                                               ; preds = %68, %54
  br label %70

70:                                               ; preds = %69, %47
  call void @EVP_CIPHER_CTX_init(ptr noundef %19)
  %71 = load ptr, ptr %8, align 8, !tbaa !21
  %72 = getelementptr inbounds [16 x i8], ptr %20, i64 0, i64 0
  %73 = call i32 @EVP_CipherInit_ex(ptr noundef %19, ptr noundef %71, ptr noundef null, ptr noundef null, ptr noundef %72, i32 noundef 0)
  %74 = icmp ne i32 %73, 0
  br i1 %74, label %76, label %75

75:                                               ; preds = %70
  br label %146

76:                                               ; preds = %70
  %77 = load ptr, ptr %14, align 8, !tbaa !27
  %78 = getelementptr inbounds nuw %struct.X509_algor_st, ptr %77, i32 0, i32 1
  %79 = load ptr, ptr %78, align 8, !tbaa !36
  %80 = call i32 @param_to_asn1(ptr noundef %19, ptr noundef %79)
  %81 = icmp slt i32 %80, 0
  br i1 %81, label %82, label %84

82:                                               ; preds = %76
  call void @ERR_put_error(i32 noundef 19, i32 noundef 0, i32 noundef 107, ptr noundef @.str.2, i32 noundef 158)
  %83 = call i32 @EVP_CIPHER_CTX_cleanup(ptr noundef %19)
  br label %146

84:                                               ; preds = %76
  %85 = load i32, ptr %13, align 4, !tbaa !23
  %86 = icmp eq i32 %85, -1
  br i1 %86, label %87, label %91

87:                                               ; preds = %84
  %88 = call i32 @EVP_CIPHER_CTX_ctrl(ptr noundef %19, i32 noundef 7, i32 noundef 0, ptr noundef %13)
  %89 = icmp sle i32 %88, 0
  br i1 %89, label %90, label %91

90:                                               ; preds = %87
  call void @ERR_clear_error()
  store i32 163, ptr %13, align 4, !tbaa !23
  br label %91

91:                                               ; preds = %90, %87, %84
  %92 = call i32 @EVP_CIPHER_CTX_cleanup(ptr noundef %19)
  %93 = load i32, ptr %17, align 4, !tbaa !23
  %94 = icmp eq i32 %93, 37
  br i1 %94, label %95, label %98

95:                                               ; preds = %91
  %96 = load ptr, ptr %8, align 8, !tbaa !21
  %97 = call i32 @EVP_CIPHER_key_length(ptr noundef %96)
  store i32 %97, ptr %18, align 4, !tbaa !23
  br label %99

98:                                               ; preds = %91
  store i32 -1, ptr %18, align 4, !tbaa !23
  br label %99

99:                                               ; preds = %98, %95
  %100 = load ptr, ptr %21, align 8, !tbaa !15
  %101 = getelementptr inbounds nuw %struct.PBE2PARAM_st, ptr %100, i32 0, i32 0
  %102 = load ptr, ptr %101, align 8, !tbaa !37
  call void @X509_ALGOR_free(ptr noundef %102)
  %103 = load i32, ptr %9, align 4, !tbaa !23
  %104 = load ptr, ptr %10, align 8, !tbaa !25
  %105 = load i32, ptr %11, align 4, !tbaa !23
  %106 = load i32, ptr %13, align 4, !tbaa !23
  %107 = load i32, ptr %18, align 4, !tbaa !23
  %108 = call ptr @PKCS5_pbkdf2_set(i32 noundef %103, ptr noundef %104, i32 noundef %105, i32 noundef %106, i32 noundef %107)
  %109 = load ptr, ptr %21, align 8, !tbaa !15
  %110 = getelementptr inbounds nuw %struct.PBE2PARAM_st, ptr %109, i32 0, i32 0
  store ptr %108, ptr %110, align 8, !tbaa !37
  %111 = load ptr, ptr %21, align 8, !tbaa !15
  %112 = getelementptr inbounds nuw %struct.PBE2PARAM_st, ptr %111, i32 0, i32 0
  %113 = load ptr, ptr %112, align 8, !tbaa !37
  %114 = icmp ne ptr %113, null
  br i1 %114, label %116, label %115

115:                                              ; preds = %99
  br label %145

116:                                              ; preds = %99
  %117 = call ptr @X509_ALGOR_new()
  store ptr %117, ptr %16, align 8, !tbaa !27
  %118 = icmp ne ptr %117, null
  br i1 %118, label %120, label %119

119:                                              ; preds = %116
  br label %145

120:                                              ; preds = %116
  %121 = call ptr @ASN1_TYPE_new()
  %122 = load ptr, ptr %16, align 8, !tbaa !27
  %123 = getelementptr inbounds nuw %struct.X509_algor_st, ptr %122, i32 0, i32 1
  store ptr %121, ptr %123, align 8, !tbaa !36
  %124 = icmp ne ptr %121, null
  br i1 %124, label %126, label %125

125:                                              ; preds = %120
  br label %145

126:                                              ; preds = %120
  %127 = call ptr @OBJ_nid2obj(i32 noundef 161)
  %128 = load ptr, ptr %16, align 8, !tbaa !27
  %129 = getelementptr inbounds nuw %struct.X509_algor_st, ptr %128, i32 0, i32 0
  store ptr %127, ptr %129, align 8, !tbaa !33
  %130 = load ptr, ptr %21, align 8, !tbaa !15
  %131 = load ptr, ptr %16, align 8, !tbaa !27
  %132 = getelementptr inbounds nuw %struct.X509_algor_st, ptr %131, i32 0, i32 1
  %133 = load ptr, ptr %132, align 8, !tbaa !36
  %134 = getelementptr inbounds nuw %struct.asn1_type_st, ptr %133, i32 0, i32 1
  %135 = call ptr @ASN1_item_pack(ptr noundef %130, ptr noundef @PBE2PARAM_it, ptr noundef %134)
  %136 = icmp ne ptr %135, null
  br i1 %136, label %138, label %137

137:                                              ; preds = %126
  br label %145

138:                                              ; preds = %126
  %139 = load ptr, ptr %16, align 8, !tbaa !27
  %140 = getelementptr inbounds nuw %struct.X509_algor_st, ptr %139, i32 0, i32 1
  %141 = load ptr, ptr %140, align 8, !tbaa !36
  %142 = getelementptr inbounds nuw %struct.asn1_type_st, ptr %141, i32 0, i32 0
  store i32 16, ptr %142, align 8, !tbaa !38
  %143 = load ptr, ptr %21, align 8, !tbaa !15
  call void @PBE2PARAM_free(ptr noundef %143)
  store ptr null, ptr %21, align 8, !tbaa !15
  %144 = load ptr, ptr %16, align 8, !tbaa !27
  store ptr %144, ptr %7, align 8
  store i32 1, ptr %23, align 4
  br label %150

145:                                              ; preds = %137, %125, %119, %115, %46, %34
  call void @ERR_put_error(i32 noundef 19, i32 noundef 0, i32 noundef 65, ptr noundef @.str.2, i32 noundef 208)
  br label %146

146:                                              ; preds = %145, %82, %75, %67, %28
  %147 = load ptr, ptr %21, align 8, !tbaa !15
  call void @PBE2PARAM_free(ptr noundef %147)
  %148 = load ptr, ptr %15, align 8, !tbaa !27
  call void @X509_ALGOR_free(ptr noundef %148)
  %149 = load ptr, ptr %16, align 8, !tbaa !27
  call void @X509_ALGOR_free(ptr noundef %149)
  store ptr null, ptr %7, align 8
  store i32 1, ptr %23, align 4
  br label %150

150:                                              ; preds = %146, %138
  call void @llvm.lifetime.end.p0(i64 8, ptr %22) #5
  call void @llvm.lifetime.end.p0(i64 8, ptr %21) #5
  call void @llvm.lifetime.end.p0(i64 16, ptr %20) #5
  call void @llvm.lifetime.end.p0(i64 152, ptr %19) #5
  call void @llvm.lifetime.end.p0(i64 4, ptr %18) #5
  call void @llvm.lifetime.end.p0(i64 4, ptr %17) #5
  call void @llvm.lifetime.end.p0(i64 8, ptr %16) #5
  call void @llvm.lifetime.end.p0(i64 8, ptr %15) #5
  call void @llvm.lifetime.end.p0(i64 8, ptr %14) #5
  %151 = load ptr, ptr %7, align 8
  ret ptr %151
}