; Function Attrs: nounwind uwtable
define hidden ptr @PKCS5_pbe2_set_iv(ptr noundef %0, i32 noundef %1, ptr noundef captures(address_is_null) %2, i32 noundef %3, ptr noundef readonly captures(address_is_null) %4, i32 noundef %5) local_unnamed_addr #0 {
  %7 = alloca i32, align 4
  %8 = alloca %struct.evp_cipher_ctx_st, align 8
  %9 = alloca [16 x i8], align 16
  store i32 %5, ptr %7, align 4, !tbaa !6
  call void @llvm.lifetime.start.p0(i64 152, ptr nonnull %8) #5
  call void @llvm.lifetime.start.p0(i64 16, ptr nonnull %9) #5
  %10 = tail call i32 @EVP_CIPHER_nid(ptr noundef %0) #5
  %11 = icmp eq i32 %10, 0
  br i1 %11, label %12, label %13

12:                                               ; preds = %6
  tail call void @ERR_put_error(i32 noundef 19, i32 noundef 0, i32 noundef 102, ptr noundef nonnull @.str.2, i32 noundef 130) #5
  br label %68

13:                                               ; preds = %6
  %14 = tail call ptr @OBJ_nid2obj(i32 noundef %10) #5
  %15 = tail call ptr @ASN1_item_new(ptr noundef nonnull @PBE2PARAM_it) #5
  %.not = icmp eq ptr %15, null
  br i1 %.not, label %67, label %16

16:                                               ; preds = %13
  %17 = getelementptr inbounds nuw i8, ptr %15, i64 8
  %18 = load ptr, ptr %17, align 8, !tbaa !10
  store ptr %14, ptr %18, align 8, !tbaa !14
  %19 = tail call ptr @ASN1_TYPE_new() #5
  %20 = getelementptr inbounds nuw i8, ptr %18, i64 8
  store ptr %19, ptr %20, align 8, !tbaa !18
  %.not41 = icmp eq ptr %19, null
  br i1 %.not41, label %67, label %21

21:                                               ; preds = %16
  %22 = tail call i32 @EVP_CIPHER_iv_length(ptr noundef %0) #5
  %.not42 = icmp eq i32 %22, 0
  br i1 %.not42, label %29, label %23

23:                                               ; preds = %21
  %.not43 = icmp eq ptr %4, null
  %24 = tail call i32 @EVP_CIPHER_iv_length(ptr noundef %0) #5
  %25 = zext i32 %24 to i64
  br i1 %.not43, label %27, label %26

26:                                               ; preds = %23
  call void @llvm.memcpy.p0.p0.i64(ptr nonnull align 16 %9, ptr nonnull align 1 %4, i64 %25, i1 false)
  br label %29

27:                                               ; preds = %23
  %28 = call i32 @RAND_bytes(ptr noundef nonnull %9, i64 noundef %25) #5
  %.not44 = icmp eq i32 %28, 0
  br i1 %.not44, label %68, label %29

29:                                               ; preds = %26, %27, %21
  call void @EVP_CIPHER_CTX_init(ptr noundef nonnull %8) #5
  %30 = call i32 @EVP_CipherInit_ex(ptr noundef nonnull %8, ptr noundef %0, ptr noundef null, ptr noundef null, ptr noundef nonnull %9, i32 noundef 0) #5
  %.not45 = icmp eq i32 %30, 0
  br i1 %.not45, label %68, label %31

31:                                               ; preds = %29
  %32 = load ptr, ptr %20, align 8, !tbaa !18
  %33 = call i32 @EVP_CIPHER_CTX_iv_length(ptr noundef nonnull %8) #5
  %34 = call ptr @ASN1_STRING_type_new(i32 noundef 4) #5
  %35 = icmp eq ptr %34, null
  br i1 %35, label %param_to_asn1.exit, label %36

36:                                               ; preds = %31
  %37 = getelementptr inbounds nuw i8, ptr %8, i64 36
  %38 = call i32 @ASN1_STRING_set(ptr noundef nonnull %34, ptr noundef nonnull %37, i32 noundef %33) #5
  %.not.i.i = icmp eq i32 %38, 0
  br i1 %.not.i.i, label %39, label %40

39:                                               ; preds = %36
  call void @ASN1_STRING_free(ptr noundef nonnull %34) #5
  br label %param_to_asn1.exit

40:                                               ; preds = %36
  call void @ASN1_TYPE_set(ptr noundef %32, i32 noundef 4, ptr noundef nonnull %34) #5
  br label %param_to_asn1.exit

param_to_asn1.exit:                               ; preds = %31, %39, %40
  %41 = icmp eq i32 %5, -1
  br i1 %41, label %42, label %46

42:                                               ; preds = %param_to_asn1.exit
  %43 = call i32 @EVP_CIPHER_CTX_ctrl(ptr noundef nonnull %8, i32 noundef 7, i32 noundef 0, ptr noundef nonnull %7) #5
  %44 = icmp slt i32 %43, 1
  br i1 %44, label %45, label %46

45:                                               ; preds = %42
  call void @ERR_clear_error() #5
  store i32 163, ptr %7, align 4, !tbaa !6
  br label %46

46:                                               ; preds = %45, %42, %param_to_asn1.exit
  %47 = call i32 @EVP_CIPHER_CTX_cleanup(ptr noundef nonnull %8) #5
  %48 = icmp eq i32 %10, 37
  br i1 %48, label %49, label %51

49:                                               ; preds = %46
  %50 = call i32 @EVP_CIPHER_key_length(ptr noundef %0) #5
  br label %51

51:                                               ; preds = %46, %49
  %.034 = phi i32 [ %50, %49 ], [ -1, %46 ]
  %52 = load ptr, ptr %15, align 8, !tbaa !19
  call void @X509_ALGOR_free(ptr noundef %52) #5
  %53 = load i32, ptr %7, align 4, !tbaa !6
  %54 = call ptr @PKCS5_pbkdf2_set(i32 noundef %1, ptr noundef %2, i32 noundef %3, i32 noundef %53, i32 noundef %.034)
  store ptr %54, ptr %15, align 8, !tbaa !19
  %.not46 = icmp eq ptr %54, null
  br i1 %.not46, label %67, label %55

55:                                               ; preds = %51
  %56 = call ptr @X509_ALGOR_new() #5
  %.not47 = icmp eq ptr %56, null
  br i1 %.not47, label %67, label %57

57:                                               ; preds = %55
  %58 = call ptr @ASN1_TYPE_new() #5
  %59 = getelementptr inbounds nuw i8, ptr %56, i64 8
  store ptr %58, ptr %59, align 8, !tbaa !18
  %.not48 = icmp eq ptr %58, null
  br i1 %.not48, label %67, label %60

60:                                               ; preds = %57
  %61 = call ptr @OBJ_nid2obj(i32 noundef 161) #5
  store ptr %61, ptr %56, align 8, !tbaa !14
  %62 = load ptr, ptr %59, align 8, !tbaa !18
  %63 = getelementptr inbounds nuw i8, ptr %62, i64 8
  %64 = call ptr @ASN1_item_pack(ptr noundef nonnull %15, ptr noundef nonnull @PBE2PARAM_it, ptr noundef nonnull %63) #5
  %.not49 = icmp eq ptr %64, null
  br i1 %.not49, label %67, label %65

65:                                               ; preds = %60
  %66 = load ptr, ptr %59, align 8, !tbaa !18
  store i32 16, ptr %66, align 8, !tbaa !20
  call void @ASN1_item_free(ptr noundef nonnull %15, ptr noundef nonnull @PBE2PARAM_it) #5
  br label %69

67:                                               ; preds = %60, %57, %55, %51, %16, %13
  %.1 = phi ptr [ %56, %60 ], [ %56, %57 ], [ null, %55 ], [ null, %51 ], [ null, %16 ], [ null, %13 ]
  call void @ERR_put_error(i32 noundef 19, i32 noundef 0, i32 noundef 65, ptr noundef nonnull @.str.2, i32 noundef 208) #5
  br label %68

68:                                               ; preds = %29, %27, %67, %12
  %.035 = phi ptr [ null, %12 ], [ %.1, %67 ], [ null, %29 ], [ null, %27 ]
  %.033 = phi ptr [ null, %12 ], [ %15, %67 ], [ %15, %29 ], [ %15, %27 ]
  call void @ASN1_item_free(ptr noundef %.033, ptr noundef nonnull @PBE2PARAM_it) #5
  call void @X509_ALGOR_free(ptr noundef null) #5
  call void @X509_ALGOR_free(ptr noundef %.035) #5
  br label %69

69:                                               ; preds = %68, %65
  %.0 = phi ptr [ null, %68 ], [ %56, %65 ]
  call void @llvm.lifetime.end.p0(i64 16, ptr nonnull %9) #5
  call void @llvm.lifetime.end.p0(i64 152, ptr nonnull %8) #5
  ret ptr %.0
}